target datalayout = "e-m:e-p270:32:32-p271:32:32-p272:64:64-i64:64-i128:128-f80:128-n8:16:32:64-S128"
target triple = "x86_64-pc-linux-gnu"

%struct.Mio_Cell2_t_ = type { ptr, ptr, i32, float, i64, i64, i32, [6 x i32], ptr }
%union.anon = type { i32 }

; Function Attrs: inlinehint nounwind uwtable
define internal i32 @Abc_Lit2Var(i32 noundef %0) #2 {
  %2 = alloca i32, align 4
  store i32 %0, ptr %2, align 4, !tbaa !17
  %3 = load i32, ptr %2, align 4, !tbaa !17
  %4 = ashr i32 %3, 1
  ret i32 %4
}

; Function Attrs: inlinehint nounwind uwtable
define internal float @Abc_Int2Float(i32 noundef %0) #2 {
  %2 = alloca i32, align 4
  %3 = alloca %union.anon, align 4
  store i32 %0, ptr %2, align 4, !tbaa !17
  call void @llvm.lifetime.start.p0(i64 4, ptr %3) #13
  %4 = load i32, ptr %2, align 4, !tbaa !17
  store i32 %4, ptr %3, align 4, !tbaa !20
  %5 = load float, ptr %3, align 4, !tbaa !20
  call void @llvm.lifetime.end.p0(i64 4, ptr %3) #13
  ret float %5
}

; Function Attrs: nounwind uwtable
define i32 @Nf_StoCellIsDominated(ptr noundef %0, ptr noundef %1, ptr noundef %2) #0 {
  %4 = alloca i32, align 4
  %5 = alloca ptr, align 8
  %6 = alloca ptr, align 8
  %7 = alloca ptr, align 8
  %8 = alloca i32, align 4
  %9 = alloca i32, align 4
  store ptr %0, ptr %5, align 8, !tbaa !3
  store ptr %1, ptr %6, align 8, !tbaa !8
  store ptr %2, ptr %7, align 8, !tbaa !8
  call void @llvm.lifetime.start.p0(i64 4, ptr %8) #13
  %10 = load ptr, ptr %5, align 8, !tbaa !3
  %11 = getelementptr inbounds nuw %struct.Mio_Cell2_t_, ptr %10, i32 0, i32 3
  %12 = load float, ptr %11, align 4, !tbaa !10
  %13 = fpext float %12 to double
  %14 = fadd double %13, 1.000000e-03
  %15 = load ptr, ptr %7, align 8, !tbaa !8
  %16 = getelementptr inbounds i32, ptr %15, i64 0
  %17 = load i32, ptr %16, align 4, !tbaa !17
  %18 = call float @Abc_Int2Float(i32 noundef %17)
  %19 = fpext float %18 to double
  %20 = fcmp olt double %14, %19
  br i1 %20, label %21, label %22

21:                                               ; preds = %3
  store i32 0, ptr %4, align 4
  store i32 1, ptr %9, align 4
  br label %55

22:                                               ; preds = %3
  store i32 0, ptr %8, align 4, !tbaa !17
  br label %23

23:                                               ; preds = %51, %22
  %24 = load i32, ptr %8, align 4, !tbaa !17
  %25 = load ptr, ptr %5, align 8, !tbaa !3
  %26 = getelementptr inbounds nuw %struct.Mio_Cell2_t_, ptr %25, i32 0, i32 2
  %27 = load i32, ptr %26, align 8
  %28 = lshr i32 %27, 28
  %29 = icmp slt i32 %24, %28
  br i1 %29, label %30, label %54

30:                                               ; preds = %23
  %31 = load ptr, ptr %5, align 8, !tbaa !3
  %32 = getelementptr inbounds nuw %struct.Mio_Cell2_t_, ptr %31, i32 0, i32 7
  %33 = load ptr, ptr %6, align 8, !tbaa !8
  %34 = load i32, ptr %8, align 4, !tbaa !17
  %35 = sext i32 %34 to i64
  %36 = getelementptr inbounds i32, ptr %33, i64 %35
  %37 = load i32, ptr %36, align 4, !tbaa !17
  %38 = call i32 @Abc_Lit2Var(i32 noundef %37)
  %39 = sext i32 %38 to i64
  %40 = getelementptr inbounds [6 x i32], ptr %32, i64 0, i64 %39
  %41 = load i32, ptr %40, align 4, !tbaa !17
  %42 = load ptr, ptr %7, align 8, !tbaa !8
  %43 = load i32, ptr %8, align 4, !tbaa !17
  %44 = add nsw i32 %43, 1
  %45 = sext i32 %44 to i64
  %46 = getelementptr inbounds i32, ptr %42, i64 %45
  %47 = load i32, ptr %46, align 4, !tbaa !17
  %48 = icmp slt i32 %41, %47
  br i1 %48, label %49, label %50

49:                                               ; preds = %30
  store i32 0, ptr %4, align 4
  store i32 1, ptr %9, align 4
  br label %55

50:                                               ; preds = %30
  br label %51

51:                                               ; preds = %50
  %52 = load i32, ptr %8, align 4, !tbaa !17
  %53 = add nsw i32 %52, 1
  store i32 %53, ptr %8, align 4, !tbaa !17
  br label %23, !llvm.loop !18

54:                                               ; preds = %23
  store i32 1, ptr %4, align 4
  store i32 1, ptr %9, align 4
  br label %55

55:                                               ; preds = %54, %49, %21
  call void @llvm.lifetime.end.p0(i64 4, ptr %8) #13
  %56 = load i32, ptr %4, align 4
  ret i32 %56
}