; Function Attrs: nofree norecurse nosync nounwind memory(argmem: read) uwtable
define range(i32 0, 2) i32 @Nf_StoCellIsDominated(ptr noundef readonly captures(none) %0, ptr noundef readonly captures(none) %1, ptr noundef readonly captures(none) %2) local_unnamed_addr #0 {
  %4 = getelementptr inbounds nuw i8, ptr %0, i64 20
  %5 = load float, ptr %4, align 4, !tbaa !3
  %6 = fpext float %5 to double
  %7 = fadd double %6, 1.000000e-03
  %8 = load float, ptr %2, align 4, !tbaa !13
  %9 = fpext float %8 to double
  %10 = fcmp olt double %7, %9
  br i1 %10, label %.loopexit, label %.preheader

.preheader:                                       ; preds = %3
  %11 = getelementptr inbounds nuw i8, ptr %0, i64 44
  %12 = getelementptr inbounds nuw i8, ptr %0, i64 16
  %13 = load i32, ptr %12, align 8
  %14 = lshr i32 %13, 28
  %wide.trip.count = zext nneg i32 %14 to i64
  br label %15

15:                                               ; preds = %.preheader, %16
  %indvars.iv = phi i64 [ 0, %.preheader ], [ %indvars.iv.next, %16 ]
  %exitcond.not = icmp eq i64 %indvars.iv, %wide.trip.count
  br i1 %exitcond.not, label %.loopexit, label %16

16:                                               ; preds = %15
  %17 = getelementptr inbounds nuw i32, ptr %1, i64 %indvars.iv
  %18 = load i32, ptr %17, align 4, !tbaa !13
  %19 = ashr i32 %18, 1
  %20 = sext i32 %19 to i64
  %21 = getelementptr inbounds [6 x i32], ptr %11, i64 0, i64 %20
  %22 = load i32, ptr %21, align 4, !tbaa !13
  %indvars.iv.next = add nuw nsw i64 %indvars.iv, 1
  %23 = getelementptr inbounds nuw i32, ptr %2, i64 %indvars.iv.next
  %24 = load i32, ptr %23, align 4, !tbaa !13
  %25 = icmp slt i32 %22, %24
  br i1 %25, label %.loopexit, label %15, !llvm.loop !14

.loopexit:                                        ; preds = %15, %16, %3
  %.010 = phi i32 [ 0, %3 ], [ 1, %15 ], [ 0, %16 ]
  ret i32 %.010
}